target datalayout = "e-m:e-p270:32:32-p271:32:32-p272:64:64-i64:64-i128:128-f80:128-n8:16:32:64-S128"
target triple = "x86_64-pc-linux-gnu"

%"class.cv::tracking::impl::tld::TLDDetector" = type { %"class.std::vector", ptr, ptr, ptr, ptr, ptr, ptr, ptr, ptr, ptr, %"class.std::vector.0", %"class.std::vector.0", %"class.std::vector.5", %"class.std::vector.10", %"class.std::vector.10", %"class.std::vector.15", %"class.std::vector.15", %"class.std::vector.20", %"class.std::vector.20" }
%"class.std::vector" = type { %"struct.std::_Vector_base" }
%"struct.std::_Vector_base" = type { %"struct.std::_Vector_base<cv::tracking::impl::tld::TLDEnsembleClassifier, std::allocator<cv::tracking::impl::tld::TLDEnsembleClassifier>>::_Vector_impl" }
%"struct.std::_Vector_base<cv::tracking::impl::tld::TLDEnsembleClassifier, std::allocator<cv::tracking::impl::tld::TLDEnsembleClassifier>>::_Vector_impl" = type { %"struct.std::_Vector_base<cv::tracking::impl::tld::TLDEnsembleClassifier, std::allocator<cv::tracking::impl::tld::TLDEnsembleClassifier>>::_Vector_impl_data" }
%"struct.std::_Vector_base<cv::tracking::impl::tld::TLDEnsembleClassifier, std::allocator<cv::tracking::impl::tld::TLDEnsembleClassifier>>::_Vector_impl_data" = type { ptr, ptr, ptr }
%"class.std::vector.0" = type { %"struct.std::_Vector_base.1" }
%"struct.std::_Vector_base.1" = type { %"struct.std::_Vector_base<double, std::allocator<double>>::_Vector_impl" }
%"struct.std::_Vector_base<double, std::allocator<double>>::_Vector_impl" = type { %"struct.std::_Vector_base<double, std::allocator<double>>::_Vector_impl_data" }
%"struct.std::_Vector_base<double, std::allocator<double>>::_Vector_impl_data" = type { ptr, ptr, ptr }
%"class.std::vector.5" = type { %"struct.std::_Vector_base.6" }
%"struct.std::_Vector_base.6" = type { %"struct.std::_Vector_base<cv::Mat_<unsigned char>, std::allocator<cv::Mat_<unsigned char>>>::_Vector_impl" }
%"struct.std::_Vector_base<cv::Mat_<unsigned char>, std::allocator<cv::Mat_<unsigned char>>>::_Vector_impl" = type { %"struct.std::_Vector_base<cv::Mat_<unsigned char>, std::allocator<cv::Mat_<unsigned char>>>::_Vector_impl_data" }
%"struct.std::_Vector_base<cv::Mat_<unsigned char>, std::allocator<cv::Mat_<unsigned char>>>::_Vector_impl_data" = type { ptr, ptr, ptr }
%"class.std::vector.10" = type { %"struct.std::_Vector_base.11" }
%"struct.std::_Vector_base.11" = type { %"struct.std::_Vector_base<cv::Mat, std::allocator<cv::Mat>>::_Vector_impl" }
%"struct.std::_Vector_base<cv::Mat, std::allocator<cv::Mat>>::_Vector_impl" = type { %"struct.std::_Vector_base<cv::Mat, std::allocator<cv::Mat>>::_Vector_impl_data" }
%"struct.std::_Vector_base<cv::Mat, std::allocator<cv::Mat>>::_Vector_impl_data" = type { ptr, ptr, ptr }
%"class.std::vector.15" = type { %"struct.std::_Vector_base.16" }
%"struct.std::_Vector_base.16" = type { %"struct.std::_Vector_base<cv::Point_<int>, std::allocator<cv::Point_<int>>>::_Vector_impl" }
%"struct.std::_Vector_base<cv::Point_<int>, std::allocator<cv::Point_<int>>>::_Vector_impl" = type { %"struct.std::_Vector_base<cv::Point_<int>, std::allocator<cv::Point_<int>>>::_Vector_impl_data" }
%"struct.std::_Vector_base<cv::Point_<int>, std::allocator<cv::Point_<int>>>::_Vector_impl_data" = type { ptr, ptr, ptr }
%"class.std::vector.20" = type { %"struct.std::_Vector_base.21" }
%"struct.std::_Vector_base.21" = type { %"struct.std::_Vector_base<int, std::allocator<int>>::_Vector_impl" }
%"struct.std::_Vector_base<int, std::allocator<int>>::_Vector_impl" = type { %"struct.std::_Vector_base<int, std::allocator<int>>::_Vector_impl_data" }
%"struct.std::_Vector_base<int, std::allocator<int>>::_Vector_impl_data" = type { ptr, ptr, ptr }
%"class.cv::tracking::impl::tld::TLDEnsembleClassifier" = type <{ %"class.std::vector.15", %"class.std::vector.25", %"class.std::vector.15", i32, [4 x i8] }>
%"class.std::vector.25" = type { %"struct.std::_Vector_base.26" }
%"struct.std::_Vector_base.26" = type { %"struct.std::_Vector_base<cv::Vec<unsigned char, 4>, std::allocator<cv::Vec<unsigned char, 4>>>::_Vector_impl" }
%"struct.std::_Vector_base<cv::Vec<unsigned char, 4>, std::allocator<cv::Vec<unsigned char, 4>>>::_Vector_impl" = type { %"struct.std::_Vector_base<cv::Vec<unsigned char, 4>, std::allocator<cv::Vec<unsigned char, 4>>>::_Vector_impl_data" }
%"struct.std::_Vector_base<cv::Vec<unsigned char, 4>, std::allocator<cv::Vec<unsigned char, 4>>>::_Vector_impl_data" = type { ptr, ptr, ptr }

; Function Attrs: mustprogress nounwind uwtable
define linkonce_odr hidden noundef nonnull align 8 dereferenceable(76) ptr @_ZNSt6vectorIN2cv8tracking4impl3tld21TLDEnsembleClassifierESaIS4_EEixEm(ptr noundef nonnull align 8 dereferenceable(24) %0, i64 noundef %1) #7 comdat align 2 {
  %3 = alloca ptr, align 8
  %4 = alloca i64, align 8
  store ptr %0, ptr %3, align 8, !tbaa !17
  store i64 %1, ptr %4, align 8, !tbaa !23
  %5 = load ptr, ptr %3, align 8
  %6 = getelementptr inbounds nuw %"struct.std::_Vector_base", ptr %5, i32 0, i32 0
  %7 = getelementptr inbounds nuw %"struct.std::_Vector_base<cv::tracking::impl::tld::TLDEnsembleClassifier, std::allocator<cv::tracking::impl::tld::TLDEnsembleClassifier>>::_Vector_impl_data", ptr %6, i32 0, i32 0
  %8 = load ptr, ptr %7, align 8, !tbaa !22
  %9 = load i64, ptr %4, align 8, !tbaa !23
  %10 = getelementptr inbounds nuw %"class.cv::tracking::impl::tld::TLDEnsembleClassifier", ptr %8, i64 %9
  ret ptr %10
}

; Function Attrs: mustprogress nounwind uwtable
define linkonce_odr hidden noundef i64 @_ZNKSt6vectorIN2cv8tracking4impl3tld21TLDEnsembleClassifierESaIS4_EE4sizeEv(ptr noundef nonnull align 8 dereferenceable(24) %0) #7 comdat align 2 {
  %2 = alloca ptr, align 8
  store ptr %0, ptr %2, align 8, !tbaa !17
  %3 = load ptr, ptr %2, align 8
  %4 = getelementptr inbounds nuw %"struct.std::_Vector_base", ptr %3, i32 0, i32 0
  %5 = getelementptr inbounds nuw %"struct.std::_Vector_base<cv::tracking::impl::tld::TLDEnsembleClassifier, std::allocator<cv::tracking::impl::tld::TLDEnsembleClassifier>>::_Vector_impl_data", ptr %4, i32 0, i32 1
  %6 = load ptr, ptr %5, align 8, !tbaa !19
  %7 = getelementptr inbounds nuw %"struct.std::_Vector_base", ptr %3, i32 0, i32 0
  %8 = getelementptr inbounds nuw %"struct.std::_Vector_base<cv::tracking::impl::tld::TLDEnsembleClassifier, std::allocator<cv::tracking::impl::tld::TLDEnsembleClassifier>>::_Vector_impl_data", ptr %7, i32 0, i32 0
  %9 = load ptr, ptr %8, align 8, !tbaa !22
  %10 = ptrtoint ptr %6 to i64
  %11 = ptrtoint ptr %9 to i64
  %12 = sub i64 %10, %11
  %13 = sdiv exact i64 %12, 80
  ret i64 %13
}

; Function Attrs: mustprogress uwtable
define hidden void @_ZN2cv8tracking4impl3tld11TLDDetector18prepareClassifiersEi(ptr noundef nonnull align 8 dereferenceable(312) %0, i32 noundef %1) #6 align 2 {
  %3 = alloca ptr, align 8
  %4 = alloca i32, align 4
  %5 = alloca i32, align 4
  store ptr %0, ptr %3, align 8, !tbaa !13
  store i32 %1, ptr %4, align 4, !tbaa !8
  %6 = load ptr, ptr %3, align 8
  call void @llvm.lifetime.start.p0(i64 4, ptr %5) #3
  store i32 0, ptr %5, align 4, !tbaa !8
  br label %7

7:                                                ; preds = %20, %2
  %8 = load i32, ptr %5, align 4, !tbaa !8
  %9 = getelementptr inbounds nuw %"class.cv::tracking::impl::tld::TLDDetector", ptr %6, i32 0, i32 0
  %10 = call noundef i64 @_ZNKSt6vectorIN2cv8tracking4impl3tld21TLDEnsembleClassifierESaIS4_EE4sizeEv(ptr noundef nonnull align 8 dereferenceable(24) %9) #3
  %11 = trunc i64 %10 to i32
  %12 = icmp slt i32 %8, %11
  br i1 %12, label %14, label %13

13:                                               ; preds = %7
  call void @llvm.lifetime.end.p0(i64 4, ptr %5) #3
  br label %23

14:                                               ; preds = %7
  %15 = getelementptr inbounds nuw %"class.cv::tracking::impl::tld::TLDDetector", ptr %6, i32 0, i32 0
  %16 = load i32, ptr %5, align 4, !tbaa !8
  %17 = sext i32 %16 to i64
  %18 = call noundef nonnull align 8 dereferenceable(76) ptr @_ZNSt6vectorIN2cv8tracking4impl3tld21TLDEnsembleClassifierESaIS4_EEixEm(ptr noundef nonnull align 8 dereferenceable(24) %15, i64 noundef %17) #3
  %19 = load i32, ptr %4, align 4, !tbaa !8
  call void @_ZN2cv8tracking4impl3tld21TLDEnsembleClassifier17prepareClassifierEi(ptr noundef nonnull align 8 dereferenceable(76) %18, i32 noundef %19)
  br label %20

20:                                               ; preds = %14
  %21 = load i32, ptr %5, align 4, !tbaa !8
  %22 = add nsw i32 %21, 1
  store i32 %22, ptr %5, align 4, !tbaa !8
  br label %7, !llvm.loop !15

23:                                               ; preds = %13
  ret void
}