; Function Attrs: mustprogress uwtable
define hidden void @_ZN2cv8tracking4impl3tld11TLDDetector18prepareClassifiersEi(ptr noundef nonnull readonly align 8 captures(none) dereferenceable(312) %0, i32 noundef %1) local_unnamed_addr #4 align 2 {
  %3 = getelementptr inbounds nuw i8, ptr %0, i64 8
  %4 = load ptr, ptr %3, align 8, !tbaa !3
  %5 = load ptr, ptr %0, align 8, !tbaa !9
  %6 = ptrtoint ptr %4 to i64
  %7 = ptrtoint ptr %5 to i64
  %8 = sub i64 %6, %7
  %9 = sdiv exact i64 %8, 80
  %10 = trunc i64 %9 to i32
  %11 = icmp sgt i32 %10, 0
  br i1 %11, label %.lr.ph, label %._crit_edge

._crit_edge:                                      ; preds = %.lr.ph, %2
  ret void

.lr.ph:                                           ; preds = %2, %.lr.ph
  %indvars.iv = phi i64 [ %indvars.iv.next, %.lr.ph ], [ 0, %2 ]
  %12 = phi ptr [ %15, %.lr.ph ], [ %5, %2 ]
  %13 = getelementptr inbounds nuw %"class.cv::tracking::impl::tld::TLDEnsembleClassifier", ptr %12, i64 %indvars.iv
  tail call void @_ZN2cv8tracking4impl3tld21TLDEnsembleClassifier17prepareClassifierEi(ptr noundef nonnull align 8 dereferenceable(76) %13, i32 noundef %1)
  %indvars.iv.next = add nuw nsw i64 %indvars.iv, 1
  %14 = load ptr, ptr %3, align 8, !tbaa !3
  %15 = load ptr, ptr %0, align 8, !tbaa !9
  %16 = ptrtoint ptr %14 to i64
  %17 = ptrtoint ptr %15 to i64
  %18 = sub i64 %16, %17
  %19 = sdiv exact i64 %18, 80
  %sext = shl i64 %19, 32
  %20 = ashr exact i64 %sext, 32
  %21 = icmp slt i64 %indvars.iv.next, %20
  br i1 %21, label %.lr.ph, label %._crit_edge, !llvm.loop !10
}